target datalayout = "e-m:e-p270:32:32-p271:32:32-p272:64:64-i64:64-i128:128-f80:128-n8:16:32:64-S128"
target triple = "x86_64-pc-linux-gnu"

%struct.test_fixture = type { ptr, i32, ptr, ptr }
%struct.ossl_cmp_pkiheader_st = type { ptr, ptr, ptr, ptr, ptr, ptr, ptr, ptr, ptr, ptr, ptr, ptr }

@rand_data = internal global [16 x i8] zeroinitializer, align 16
@.str.5 = private unnamed_addr constant [24 x i8] c"test_HDR_set1_senderKID\00", align 1
@.str.13 = private unnamed_addr constant [31 x i8] c"../openssl/test/cmp_hdr_test.c\00", align 1
@.str.18 = private unnamed_addr constant [2 x i8] c"1\00", align 1
@.str.27 = private unnamed_addr constant [2 x i8] c"0\00", align 1
@.str.42 = private unnamed_addr constant [10 x i8] c"senderKID\00", align 1
@.str.43 = private unnamed_addr constant [63 x i8] c"ASN1_OCTET_STRING_set(senderKID, rand_data, sizeof(rand_data))\00", align 1
@.str.44 = private unnamed_addr constant [53 x i8] c"ossl_cmp_hdr_set1_senderKID(fixture->hdr, senderKID)\00", align 1
@.str.45 = private unnamed_addr constant [58 x i8] c"ASN1_OCTET_STRING_cmp(fixture->hdr->senderKID, senderKID)\00", align 1

; Function Attrs: nounwind uwtable
define internal void @tear_down(ptr noundef %0) #0 {
  %2 = alloca ptr, align 8
  store ptr %0, ptr %2, align 8, !tbaa !4
  %3 = load ptr, ptr %2, align 8, !tbaa !4
  %4 = getelementptr inbounds nuw %struct.test_fixture, ptr %3, i32 0, i32 3
  %5 = load ptr, ptr %4, align 8, !tbaa !21
  call void @OSSL_CMP_PKIHEADER_free(ptr noundef %5)
  %6 = load ptr, ptr %2, align 8, !tbaa !4
  %7 = getelementptr inbounds nuw %struct.test_fixture, ptr %6, i32 0, i32 2
  %8 = load ptr, ptr %7, align 8, !tbaa !16
  call void @OSSL_CMP_CTX_free(ptr noundef %8)
  %9 = load ptr, ptr %2, align 8, !tbaa !4
  call void @CRYPTO_free(ptr noundef %9, ptr noundef @.str.13, i32 noundef 28)
  ret void
}

; Function Attrs: nounwind uwtable
define internal i32 @execute_HDR_set1_senderKID_test(ptr noundef %0) #0 {
  %2 = alloca ptr, align 8
  %3 = alloca ptr, align 8
  %4 = alloca i32, align 4
  store ptr %0, ptr %2, align 8, !tbaa !4
  call void @llvm.lifetime.start.p0(i64 8, ptr %3) #7
  %5 = call ptr @ASN1_OCTET_STRING_new()
  store ptr %5, ptr %3, align 8, !tbaa !22
  call void @llvm.lifetime.start.p0(i64 4, ptr %4) #7
  store i32 0, ptr %4, align 4, !tbaa !9
  %6 = load ptr, ptr %3, align 8, !tbaa !22
  %7 = call i32 @test_ptr(ptr noundef @.str.13, i32 noundef 219, ptr noundef @.str.42, ptr noundef %6)
  %8 = icmp ne i32 %7, 0
  br i1 %8, label %10, label %9

9:                                                ; preds = %1
  br label %37

10:                                               ; preds = %1
  %11 = load ptr, ptr %3, align 8, !tbaa !22
  %12 = call i32 @ASN1_OCTET_STRING_set(ptr noundef %11, ptr noundef @rand_data, i32 noundef 16)
  %13 = call i32 @test_int_eq(ptr noundef @.str.13, i32 noundef 223, ptr noundef @.str.43, ptr noundef @.str.18, i32 noundef %12, i32 noundef 1)
  %14 = icmp ne i32 %13, 0
  br i1 %14, label %16, label %15

15:                                               ; preds = %10
  br label %37

16:                                               ; preds = %10
  %17 = load ptr, ptr %2, align 8, !tbaa !4
  %18 = getelementptr inbounds nuw %struct.test_fixture, ptr %17, i32 0, i32 3
  %19 = load ptr, ptr %18, align 8, !tbaa !21
  %20 = load ptr, ptr %3, align 8, !tbaa !22
  %21 = call i32 @ossl_cmp_hdr_set1_senderKID(ptr noundef %19, ptr noundef %20)
  %22 = call i32 @test_int_eq(ptr noundef @.str.13, i32 noundef 225, ptr noundef @.str.44, ptr noundef @.str.18, i32 noundef %21, i32 noundef 1)
  %23 = icmp ne i32 %22, 0
  br i1 %23, label %25, label %24

24:                                               ; preds = %16
  br label %37

25:                                               ; preds = %16
  %26 = load ptr, ptr %2, align 8, !tbaa !4
  %27 = getelementptr inbounds nuw %struct.test_fixture, ptr %26, i32 0, i32 3
  %28 = load ptr, ptr %27, align 8, !tbaa !21
  %29 = getelementptr inbounds nuw %struct.ossl_cmp_pkiheader_st, ptr %28, i32 0, i32 5
  %30 = load ptr, ptr %29, align 8, !tbaa !51
  %31 = load ptr, ptr %3, align 8, !tbaa !22
  %32 = call i32 @ASN1_OCTET_STRING_cmp(ptr noundef %30, ptr noundef %31)
  %33 = call i32 @test_int_eq(ptr noundef @.str.13, i32 noundef 228, ptr noundef @.str.45, ptr noundef @.str.27, i32 noundef %32, i32 noundef 0)
  %34 = icmp ne i32 %33, 0
  br i1 %34, label %36, label %35

35:                                               ; preds = %25
  br label %37

36:                                               ; preds = %25
  store i32 1, ptr %4, align 4, !tbaa !9
  br label %37

37:                                               ; preds = %36, %35, %24, %15, %9
  %38 = load ptr, ptr %3, align 8, !tbaa !22
  call void @ASN1_OCTET_STRING_free(ptr noundef %38)
  %39 = load i32, ptr %4, align 4, !tbaa !9
  call void @llvm.lifetime.end.p0(i64 4, ptr %4) #7
  call void @llvm.lifetime.end.p0(i64 8, ptr %3) #7
  ret i32 %39
}

; Function Attrs: nounwind uwtable
define internal i32 @test_HDR_set1_senderKID() #0 {
  %1 = alloca i32, align 4
  %2 = alloca ptr, align 8
  %3 = alloca i32, align 4
  %4 = alloca i32, align 4
  call void @llvm.lifetime.start.p0(i64 8, ptr %2) #7
  %5 = call ptr @set_up(ptr noundef @.str.5)
  store ptr %5, ptr %2, align 8, !tbaa !4
  call void @llvm.lifetime.start.p0(i64 4, ptr %3) #7
  store i32 0, ptr %3, align 4, !tbaa !9
  %6 = load ptr, ptr %2, align 8, !tbaa !4
  %7 = icmp eq ptr %6, null
  br i1 %7, label %8, label %9

8:                                                ; preds = %0
  store i32 0, ptr %1, align 4
  store i32 1, ptr %4, align 4
  br label %20

9:                                                ; preds = %0
  %10 = load ptr, ptr %2, align 8, !tbaa !4
  %11 = getelementptr inbounds nuw %struct.test_fixture, ptr %10, i32 0, i32 1
  store i32 1, ptr %11, align 8, !tbaa !11
  %12 = load ptr, ptr %2, align 8, !tbaa !4
  %13 = icmp ne ptr %12, null
  br i1 %13, label %14, label %18

14:                                               ; preds = %9
  %15 = load ptr, ptr %2, align 8, !tbaa !4
  %16 = call i32 @execute_HDR_set1_senderKID_test(ptr noundef %15)
  store i32 %16, ptr %3, align 4, !tbaa !9
  %17 = load ptr, ptr %2, align 8, !tbaa !4
  call void @tear_down(ptr noundef %17)
  br label %18

18:                                               ; preds = %14, %9
  %19 = load i32, ptr %3, align 4, !tbaa !9
  store i32 %19, ptr %1, align 4
  store i32 1, ptr %4, align 4
  br label %20

20:                                               ; preds = %18, %8
  call void @llvm.lifetime.end.p0(i64 4, ptr %3) #7
  call void @llvm.lifetime.end.p0(i64 8, ptr %2) #7
  %21 = load i32, ptr %1, align 4
  ret i32 %21
}