; Function Attrs: nounwind uwtable
define internal range(i32 0, 2) i32 @test_HDR_set1_senderKID() #1 {
  %1 = tail call fastcc ptr @set_up(ptr noundef nonnull @.str.5)
  %2 = icmp eq ptr %1, null
  br i1 %2, label %25, label %3

3:                                                ; preds = %0
  %4 = getelementptr inbounds nuw i8, ptr %1, i64 8
  store i32 1, ptr %4, align 8, !tbaa !4
  %5 = tail call ptr @ASN1_OCTET_STRING_new() #8
  %6 = tail call i32 @test_ptr(ptr noundef nonnull @.str.13, i32 noundef 219, ptr noundef nonnull @.str.42, ptr noundef %5) #8
  %.not.i = icmp eq i32 %6, 0
  br i1 %.not.i, label %execute_HDR_set1_senderKID_test.exit, label %7

7:                                                ; preds = %3
  %8 = tail call i32 @ASN1_OCTET_STRING_set(ptr noundef %5, ptr noundef nonnull @rand_data, i32 noundef 16) #8
  %9 = tail call i32 @test_int_eq(ptr noundef nonnull @.str.13, i32 noundef 223, ptr noundef nonnull @.str.43, ptr noundef nonnull @.str.18, i32 noundef %8, i32 noundef 1) #8
  %.not7.i = icmp eq i32 %9, 0
  br i1 %.not7.i, label %execute_HDR_set1_senderKID_test.exit, label %10

10:                                               ; preds = %7
  %11 = getelementptr inbounds nuw i8, ptr %1, i64 24
  %12 = load ptr, ptr %11, align 8, !tbaa !13
  %13 = tail call i32 @ossl_cmp_hdr_set1_senderKID(ptr noundef %12, ptr noundef %5) #8
  %14 = tail call i32 @test_int_eq(ptr noundef nonnull @.str.13, i32 noundef 225, ptr noundef nonnull @.str.44, ptr noundef nonnull @.str.18, i32 noundef %13, i32 noundef 1) #8
  %.not8.i = icmp eq i32 %14, 0
  br i1 %.not8.i, label %execute_HDR_set1_senderKID_test.exit, label %15

15:                                               ; preds = %10
  %16 = load ptr, ptr %11, align 8, !tbaa !13
  %17 = getelementptr inbounds nuw i8, ptr %16, i64 40
  %18 = load ptr, ptr %17, align 8, !tbaa !46
  %19 = tail call i32 @ASN1_OCTET_STRING_cmp(ptr noundef %18, ptr noundef %5) #8
  %20 = tail call i32 @test_int_eq(ptr noundef nonnull @.str.13, i32 noundef 228, ptr noundef nonnull @.str.45, ptr noundef nonnull @.str.27, i32 noundef %19, i32 noundef 0) #8
  %.not9.i = icmp ne i32 %20, 0
  %spec.select.i = zext i1 %.not9.i to i32
  br label %execute_HDR_set1_senderKID_test.exit

execute_HDR_set1_senderKID_test.exit:             ; preds = %3, %7, %10, %15
  %.0.i = phi i32 [ 0, %10 ], [ 0, %7 ], [ 0, %3 ], [ %spec.select.i, %15 ]
  tail call void @ASN1_OCTET_STRING_free(ptr noundef %5) #8
  %21 = getelementptr inbounds nuw i8, ptr %1, i64 24
  %22 = load ptr, ptr %21, align 8, !tbaa !13
  tail call void @OSSL_CMP_PKIHEADER_free(ptr noundef %22) #8
  %23 = getelementptr inbounds nuw i8, ptr %1, i64 16
  %24 = load ptr, ptr %23, align 8, !tbaa !14
  tail call void @OSSL_CMP_CTX_free(ptr noundef %24) #8
  tail call void @CRYPTO_free(ptr noundef nonnull %1, ptr noundef nonnull @.str.13, i32 noundef 28) #8
  br label %25

25:                                               ; preds = %0, %execute_HDR_set1_senderKID_test.exit
  %.06 = phi i32 [ %.0.i, %execute_HDR_set1_senderKID_test.exit ], [ 0, %0 ]
  ret i32 %.06
}